; Function Attrs: nounwind uwtable
define void @Abc_NodeInvUpdateFanPolarity(ptr noundef %0) local_unnamed_addr #2 {
  %2 = getelementptr i8, ptr %0, i64 44
  %.val1014 = load i32, ptr %2, align 4, !tbaa !60
  %3 = icmp sgt i32 %.val1014, 0
  br i1 %3, label %.lr.ph, label %.critedge

.lr.ph:                                           ; preds = %1
  %4 = getelementptr i8, ptr %0, i64 48
  br label %5

5:                                                ; preds = %.lr.ph, %26
  %indvars.iv = phi i64 [ 0, %.lr.ph ], [ %indvars.iv.next, %26 ]
  %.val11 = load ptr, ptr %0, align 8, !tbaa !31
  %.val12 = load ptr, ptr %4, align 8, !tbaa !62
  %6 = getelementptr i8, ptr %.val11, i64 32
  %.val11.val = load ptr, ptr %6, align 8, !tbaa !3
  %7 = getelementptr i8, ptr %.val11.val, i64 8
  %.val11.val.val = load ptr, ptr %7, align 8, !tbaa !26
  %8 = getelementptr inbounds nuw i32, ptr %.val12, i64 %indvars.iv
  %9 = load i32, ptr %8, align 4, !tbaa !33
  %10 = sext i32 %9 to i64
  %11 = getelementptr inbounds ptr, ptr %.val11.val.val, i64 %10
  %12 = load ptr, ptr %11, align 8, !tbaa !27
  %13 = getelementptr i8, ptr %12, i64 20
  %.val.i = load i32, ptr %13, align 4
  %14 = and i32 %.val.i, 15
  %.not.i = icmp eq i32 %14, 7
  br i1 %.not.i, label %Abc_SclObjIsBufInv.exit, label %Abc_SclObjIsBufInv.exit.thread

Abc_SclObjIsBufInv.exit:                          ; preds = %5
  %15 = getelementptr i8, ptr %12, i64 28
  %.val2.i = load i32, ptr %15, align 4, !tbaa !28
  %.not = icmp eq i32 %.val2.i, 1
  br i1 %.not, label %16, label %Abc_SclObjIsBufInv.exit.thread

16:                                               ; preds = %Abc_SclObjIsBufInv.exit
  tail call void @Abc_NodeInvUpdateFanPolarity(ptr noundef nonnull %12)
  br label %26

Abc_SclObjIsBufInv.exit.thread:                   ; preds = %5, %Abc_SclObjIsBufInv.exit
  %17 = tail call i32 @Abc_NodeFindFanin(ptr noundef nonnull %12, ptr noundef nonnull %0) #17
  %.val = load ptr, ptr %12, align 8, !tbaa !31
  %18 = getelementptr i8, ptr %12, i64 16
  %.val9 = load i32, ptr %18, align 8, !tbaa !34
  %19 = getelementptr i8, ptr %.val, i64 384
  %.val.val = load ptr, ptr %19, align 8, !tbaa !44
  %20 = getelementptr i8, ptr %.val.val, i64 8
  %.val.val.val = load ptr, ptr %20, align 8, !tbaa !45
  %21 = shl nuw i32 1, %17
  %22 = sext i32 %.val9 to i64
  %23 = getelementptr inbounds i32, ptr %.val.val.val, i64 %22
  %24 = load i32, ptr %23, align 4, !tbaa !33
  %25 = xor i32 %24, %21
  store i32 %25, ptr %23, align 4, !tbaa !33
  br label %26

26:                                               ; preds = %16, %Abc_SclObjIsBufInv.exit.thread
  %indvars.iv.next = add nuw nsw i64 %indvars.iv, 1
  %.val10 = load i32, ptr %2, align 4, !tbaa !60
  %27 = sext i32 %.val10 to i64
  %28 = icmp slt i64 %indvars.iv.next, %27
  br i1 %28, label %5, label %.critedge, !llvm.loop !63

.critedge:                                        ; preds = %26, %1
  ret void
}